target datalayout = "e-m:e-p270:32:32-p271:32:32-p272:64:64-i64:64-i128:128-f80:128-n8:16:32:64-S128"
target triple = "x86_64-pc-linux-gnu"

%struct.strbuf = type { i64, i64, ptr }
%struct.git_hash_algo = type { ptr, i32, i64, i64, i64, ptr, ptr, ptr, ptr, ptr, ptr, ptr, ptr, ptr }

@gpg_sig_headers = internal global [3 x ptr] [ptr null, ptr @.str.26, ptr @.str.43], align 16
@.str.24 = private unnamed_addr constant [3 x i8] c"\0A\0A\00", align 1
@.str.25 = private unnamed_addr constant [2 x i8] c" \00", align 1
@hash_algos = external constant [3 x %struct.git_hash_algo], align 16

; Function Attrs: inlinehint nounwind uwtable
define internal void @strbuf_insertstr(ptr noundef %0, i64 noundef %1, ptr noundef %2) #4 {
  %4 = alloca ptr, align 8
  %5 = alloca i64, align 8
  %6 = alloca ptr, align 8
  store ptr %0, ptr %4, align 8, !tbaa !62
  store i64 %1, ptr %5, align 8, !tbaa !47
  store ptr %2, ptr %6, align 8, !tbaa !15
  %7 = load ptr, ptr %4, align 8, !tbaa !62
  %8 = load i64, ptr %5, align 8, !tbaa !47
  %9 = load ptr, ptr %6, align 8, !tbaa !15
  %10 = load ptr, ptr %6, align 8, !tbaa !15
  %11 = call i64 @strlen(ptr noundef %10) #13
  call void @strbuf_insert(ptr noundef %7, i64 noundef %8, ptr noundef %9, i64 noundef %11)
  ret void
}

; Function Attrs: inlinehint nounwind uwtable
define internal i32 @hash_algo_by_ptr(ptr noundef %0) #4 {
  %2 = alloca i32, align 4
  %3 = alloca ptr, align 8
  %4 = alloca i64, align 8
  %5 = alloca ptr, align 8
  %6 = alloca i32, align 4
  store ptr %0, ptr %3, align 8, !tbaa !173
  call void @llvm.lifetime.start.p0(i64 8, ptr %4) #11
  store i64 0, ptr %4, align 8, !tbaa !47
  br label %7

7:                                                ; preds = %23, %1
  %8 = load i64, ptr %4, align 8, !tbaa !47
  %9 = icmp ult i64 %8, 3
  br i1 %9, label %10, label %26

10:                                               ; preds = %7
  call void @llvm.lifetime.start.p0(i64 8, ptr %5) #11
  %11 = load i64, ptr %4, align 8, !tbaa !47
  %12 = getelementptr inbounds nuw [3 x %struct.git_hash_algo], ptr @hash_algos, i64 0, i64 %11
  store ptr %12, ptr %5, align 8, !tbaa !173
  %13 = load ptr, ptr %3, align 8, !tbaa !173
  %14 = load ptr, ptr %5, align 8, !tbaa !173
  %15 = icmp eq ptr %13, %14
  br i1 %15, label %16, label %19

16:                                               ; preds = %10
  %17 = load i64, ptr %4, align 8, !tbaa !47
  %18 = trunc i64 %17 to i32
  store i32 %18, ptr %2, align 4
  store i32 1, ptr %6, align 4
  br label %20

19:                                               ; preds = %10
  store i32 0, ptr %6, align 4
  br label %20

20:                                               ; preds = %19, %16
  call void @llvm.lifetime.end.p0(i64 8, ptr %5) #11
  %21 = load i32, ptr %6, align 4
  switch i32 %21, label %27 [
    i32 0, label %22
  ]

22:                                               ; preds = %20
  br label %23

23:                                               ; preds = %22
  %24 = load i64, ptr %4, align 8, !tbaa !47
  %25 = add i64 %24, 1
  store i64 %25, ptr %4, align 8, !tbaa !47
  br label %7, !llvm.loop !175

26:                                               ; preds = %7
  store i32 0, ptr %2, align 4
  store i32 1, ptr %6, align 4
  br label %27

27:                                               ; preds = %26, %20
  call void @llvm.lifetime.end.p0(i64 8, ptr %4) #11
  %28 = load i32, ptr %2, align 4
  ret i32 %28
}

; Function Attrs: nounwind uwtable
define dso_local i32 @add_header_signature(ptr noundef %0, ptr noundef %1, ptr noundef %2) #0 {
  %4 = alloca ptr, align 8
  %5 = alloca ptr, align 8
  %6 = alloca ptr, align 8
  %7 = alloca i32, align 4
  %8 = alloca i32, align 4
  %9 = alloca ptr, align 8
  %10 = alloca ptr, align 8
  %11 = alloca i32, align 4
  %12 = alloca ptr, align 8
  %13 = alloca ptr, align 8
  %14 = alloca i32, align 4
  store ptr %0, ptr %4, align 8, !tbaa !62
  store ptr %1, ptr %5, align 8, !tbaa !62
  store ptr %2, ptr %6, align 8, !tbaa !173
  call void @llvm.lifetime.start.p0(i64 4, ptr %7) #11
  call void @llvm.lifetime.start.p0(i64 4, ptr %8) #11
  call void @llvm.lifetime.start.p0(i64 8, ptr %9) #11
  call void @llvm.lifetime.start.p0(i64 8, ptr %10) #11
  %15 = load ptr, ptr %6, align 8, !tbaa !173
  %16 = call i32 @hash_algo_by_ptr(ptr noundef %15)
  %17 = sext i32 %16 to i64
  %18 = getelementptr inbounds [3 x ptr], ptr @gpg_sig_headers, i64 0, i64 %17
  %19 = load ptr, ptr %18, align 8, !tbaa !15
  store ptr %19, ptr %10, align 8, !tbaa !15
  call void @llvm.lifetime.start.p0(i64 4, ptr %11) #11
  %20 = load ptr, ptr %10, align 8, !tbaa !15
  %21 = call i64 @strlen(ptr noundef %20) #13
  %22 = trunc i64 %21 to i32
  store i32 %22, ptr %11, align 4, !tbaa !11
  %23 = load ptr, ptr %4, align 8, !tbaa !62
  %24 = getelementptr inbounds nuw %struct.strbuf, ptr %23, i32 0, i32 2
  %25 = load ptr, ptr %24, align 8, !tbaa !66
  %26 = call ptr @strstr(ptr noundef %25, ptr noundef @.str.24) #13
  store ptr %26, ptr %9, align 8, !tbaa !15
  %27 = load ptr, ptr %9, align 8, !tbaa !15
  %28 = icmp ne ptr %27, null
  br i1 %28, label %34, label %29

29:                                               ; preds = %3
  %30 = load ptr, ptr %4, align 8, !tbaa !62
  %31 = getelementptr inbounds nuw %struct.strbuf, ptr %30, i32 0, i32 1
  %32 = load i64, ptr %31, align 8, !tbaa !64
  %33 = trunc i64 %32 to i32
  store i32 %33, ptr %7, align 4, !tbaa !11
  br label %44

34:                                               ; preds = %3
  %35 = load ptr, ptr %9, align 8, !tbaa !15
  %36 = load ptr, ptr %4, align 8, !tbaa !62
  %37 = getelementptr inbounds nuw %struct.strbuf, ptr %36, i32 0, i32 2
  %38 = load ptr, ptr %37, align 8, !tbaa !66
  %39 = ptrtoint ptr %35 to i64
  %40 = ptrtoint ptr %38 to i64
  %41 = sub i64 %39, %40
  %42 = add nsw i64 %41, 1
  %43 = trunc i64 %42 to i32
  store i32 %43, ptr %7, align 4, !tbaa !11
  br label %44

44:                                               ; preds = %34, %29
  store i32 0, ptr %8, align 4, !tbaa !11
  br label %45

45:                                               ; preds = %89, %44
  %46 = load ptr, ptr %5, align 8, !tbaa !62
  %47 = getelementptr inbounds nuw %struct.strbuf, ptr %46, i32 0, i32 2
  %48 = load ptr, ptr %47, align 8, !tbaa !66
  %49 = load i32, ptr %8, align 4, !tbaa !11
  %50 = sext i32 %49 to i64
  %51 = getelementptr inbounds i8, ptr %48, i64 %50
  %52 = load i8, ptr %51, align 1, !tbaa !19
  %53 = icmp ne i8 %52, 0
  br i1 %53, label %54, label %106

54:                                               ; preds = %45
  call void @llvm.lifetime.start.p0(i64 8, ptr %12) #11
  %55 = load ptr, ptr %5, align 8, !tbaa !62
  %56 = getelementptr inbounds nuw %struct.strbuf, ptr %55, i32 0, i32 2
  %57 = load ptr, ptr %56, align 8, !tbaa !66
  %58 = load i32, ptr %8, align 4, !tbaa !11
  %59 = sext i32 %58 to i64
  %60 = getelementptr inbounds i8, ptr %57, i64 %59
  store ptr %60, ptr %12, align 8, !tbaa !15
  call void @llvm.lifetime.start.p0(i64 8, ptr %13) #11
  %61 = load ptr, ptr %12, align 8, !tbaa !15
  %62 = call ptr @strchrnul(ptr noundef %61, i32 noundef 10) #13
  store ptr %62, ptr %13, align 8, !tbaa !15
  call void @llvm.lifetime.start.p0(i64 4, ptr %14) #11
  %63 = load ptr, ptr %13, align 8, !tbaa !15
  %64 = load ptr, ptr %12, align 8, !tbaa !15
  %65 = ptrtoint ptr %63 to i64
  %66 = ptrtoint ptr %64 to i64
  %67 = sub i64 %65, %66
  %68 = load ptr, ptr %13, align 8, !tbaa !15
  %69 = load i8, ptr %68, align 1, !tbaa !19
  %70 = icmp ne i8 %69, 0
  %71 = xor i1 %70, true
  %72 = xor i1 %71, true
  %73 = zext i1 %72 to i32
  %74 = sext i32 %73 to i64
  %75 = add nsw i64 %67, %74
  %76 = trunc i64 %75 to i32
  store i32 %76, ptr %14, align 4, !tbaa !11
  %77 = load i32, ptr %8, align 4, !tbaa !11
  %78 = icmp ne i32 %77, 0
  br i1 %78, label %89, label %79

79:                                               ; preds = %54
  %80 = load ptr, ptr %4, align 8, !tbaa !62
  %81 = load i32, ptr %7, align 4, !tbaa !11
  %82 = sext i32 %81 to i64
  %83 = load ptr, ptr %10, align 8, !tbaa !15
  %84 = load i32, ptr %11, align 4, !tbaa !11
  %85 = sext i32 %84 to i64
  call void @strbuf_insert(ptr noundef %80, i64 noundef %82, ptr noundef %83, i64 noundef %85)
  %86 = load i32, ptr %11, align 4, !tbaa !11
  %87 = load i32, ptr %7, align 4, !tbaa !11
  %88 = add nsw i32 %87, %86
  store i32 %88, ptr %7, align 4, !tbaa !11
  br label %89

89:                                               ; preds = %79, %54
  %90 = load ptr, ptr %4, align 8, !tbaa !62
  %91 = load i32, ptr %7, align 4, !tbaa !11
  %92 = add nsw i32 %91, 1
  store i32 %92, ptr %7, align 4, !tbaa !11
  %93 = sext i32 %91 to i64
  call void @strbuf_insertstr(ptr noundef %90, i64 noundef %93, ptr noundef @.str.25)
  %94 = load ptr, ptr %4, align 8, !tbaa !62
  %95 = load i32, ptr %7, align 4, !tbaa !11
  %96 = sext i32 %95 to i64
  %97 = load ptr, ptr %12, align 8, !tbaa !15
  %98 = load i32, ptr %14, align 4, !tbaa !11
  %99 = sext i32 %98 to i64
  call void @strbuf_insert(ptr noundef %94, i64 noundef %96, ptr noundef %97, i64 noundef %99)
  %100 = load i32, ptr %14, align 4, !tbaa !11
  %101 = load i32, ptr %7, align 4, !tbaa !11
  %102 = add nsw i32 %101, %100
  store i32 %102, ptr %7, align 4, !tbaa !11
  %103 = load i32, ptr %14, align 4, !tbaa !11
  %104 = load i32, ptr %8, align 4, !tbaa !11
  %105 = add nsw i32 %104, %103
  store i32 %105, ptr %8, align 4, !tbaa !11
  call void @llvm.lifetime.end.p0(i64 4, ptr %14) #11
  call void @llvm.lifetime.end.p0(i64 8, ptr %13) #11
  call void @llvm.lifetime.end.p0(i64 8, ptr %12) #11
  br label %45, !llvm.loop !174

106:                                              ; preds = %45
  call void @llvm.lifetime.end.p0(i64 4, ptr %11) #11
  call void @llvm.lifetime.end.p0(i64 8, ptr %10) #11
  call void @llvm.lifetime.end.p0(i64 8, ptr %9) #11
  call void @llvm.lifetime.end.p0(i64 4, ptr %8) #11
  call void @llvm.lifetime.end.p0(i64 4, ptr %7) #11
  ret i32 0
}