; Function Attrs: nounwind uwtable
define dso_local noundef i32 @add_header_signature(ptr noundef %0, ptr noundef readonly captures(none) %1, ptr noundef readnone %2) local_unnamed_addr #0 {
  br label %4

4:                                                ; preds = %6, %3
  %.0811.i = phi i64 [ 0, %3 ], [ %7, %6 ]
  %5 = getelementptr inbounds nuw [3 x %struct.git_hash_algo], ptr @hash_algos, i64 0, i64 %.0811.i
  %.not.i = icmp eq ptr %2, %5
  br i1 %.not.i, label %.split.loop.exit9.i, label %6

6:                                                ; preds = %4
  %7 = add nuw nsw i64 %.0811.i, 1
  %exitcond.not.i = icmp eq i64 %7, 3
  br i1 %exitcond.not.i, label %hash_algo_by_ptr.exit, label %4, !llvm.loop !147

.split.loop.exit9.i:                              ; preds = %4
  %sext36 = shl i64 %.0811.i, 32
  %8 = ashr exact i64 %sext36, 32
  br label %hash_algo_by_ptr.exit

hash_algo_by_ptr.exit:                            ; preds = %6, %.split.loop.exit9.i
  %.2.i = phi i64 [ %8, %.split.loop.exit9.i ], [ 0, %6 ]
  %9 = getelementptr inbounds [3 x ptr], ptr @gpg_sig_headers, i64 0, i64 %.2.i
  %10 = load ptr, ptr %9, align 8, !tbaa !54
  %11 = tail call i64 @strlen(ptr noundef nonnull dereferenceable(1) %10) #26
  %12 = trunc i64 %11 to i32
  %13 = getelementptr inbounds nuw i8, ptr %0, i64 16
  %14 = load ptr, ptr %13, align 8, !tbaa !57
  %15 = tail call ptr @strstr(ptr noundef nonnull dereferenceable(1) %14, ptr noundef nonnull dereferenceable(1) @.str.24) #26
  %.not = icmp eq ptr %15, null
  br i1 %.not, label %16, label %20

16:                                               ; preds = %hash_algo_by_ptr.exit
  %17 = getelementptr inbounds nuw i8, ptr %0, i64 8
  %18 = load i64, ptr %17, align 8, !tbaa !55
  %19 = trunc i64 %18 to i32
  br label %26

20:                                               ; preds = %hash_algo_by_ptr.exit
  %21 = ptrtoint ptr %15 to i64
  %22 = ptrtoint ptr %14 to i64
  %23 = sub i64 %21, %22
  %24 = trunc i64 %23 to i32
  %25 = add i32 %24, 1
  br label %26

26:                                               ; preds = %20, %16
  %.0 = phi i32 [ %25, %20 ], [ %19, %16 ]
  %27 = getelementptr inbounds nuw i8, ptr %1, i64 16
  %28 = load ptr, ptr %27, align 8, !tbaa !57
  %29 = load i8, ptr %28, align 1, !tbaa !11
  %.not3338 = icmp eq i8 %29, 0
  br i1 %.not3338, label %._crit_edge, label %.lr.ph

.lr.ph:                                           ; preds = %26
  %sext = shl i64 %11, 32
  %30 = ashr exact i64 %sext, 32
  br label %31

31:                                               ; preds = %.lr.ph, %45
  %32 = phi ptr [ %28, %.lr.ph ], [ %54, %45 ]
  %.140 = phi i32 [ %.0, %.lr.ph ], [ %50, %45 ]
  %.03139 = phi i32 [ 0, %.lr.ph ], [ %51, %45 ]
  %33 = tail call ptr @strchrnul(ptr noundef nonnull %32, i32 noundef 10) #26
  %34 = ptrtoint ptr %33 to i64
  %35 = ptrtoint ptr %32 to i64
  %36 = sub i64 %34, %35
  %37 = load i8, ptr %33, align 1, !tbaa !11
  %38 = icmp ne i8 %37, 0
  %39 = zext i1 %38 to i64
  %40 = add nsw i64 %36, %39
  %41 = trunc i64 %40 to i32
  %.not34 = icmp eq i32 %.03139, 0
  br i1 %.not34, label %42, label %45

42:                                               ; preds = %31
  %43 = sext i32 %.140 to i64
  tail call void @strbuf_insert(ptr noundef %0, i64 noundef %43, ptr noundef nonnull %10, i64 noundef %30) #24
  %44 = add nsw i32 %.140, %12
  br label %45

45:                                               ; preds = %42, %31
  %.2 = phi i32 [ %.140, %31 ], [ %44, %42 ]
  %46 = add nsw i32 %.2, 1
  %47 = sext i32 %.2 to i64
  tail call void @strbuf_insert(ptr noundef %0, i64 noundef range(i64 -2147483648, 2147483648) %47, ptr noundef nonnull @.str.25, i64 noundef 1) #24
  %48 = sext i32 %46 to i64
  %sext35 = shl i64 %40, 32
  %49 = ashr exact i64 %sext35, 32
  tail call void @strbuf_insert(ptr noundef %0, i64 noundef %48, ptr noundef nonnull %32, i64 noundef %49) #24
  %50 = add nsw i32 %46, %41
  %51 = add nsw i32 %.03139, %41
  %52 = load ptr, ptr %27, align 8, !tbaa !57
  %53 = sext i32 %51 to i64
  %54 = getelementptr inbounds i8, ptr %52, i64 %53
  %55 = load i8, ptr %54, align 1, !tbaa !11
  %.not33 = icmp eq i8 %55, 0
  br i1 %.not33, label %._crit_edge, label %31, !llvm.loop !148

._crit_edge:                                      ; preds = %45, %26
  ret i32 0
}